; Function Attrs: mustprogress uwtable
define void @_ZN32pxrInternal_v0_24__pxrReserved__24Sdf_TextFileFormatParser28_DictionaryInitScalarFactoryERKNS_17Sdf_ParserHelpers5ValueEPNS_21Sdf_TextParserContextE(ptr noundef nonnull align 8 dereferenceable(72) %0, ptr noundef %1) local_unnamed_addr #0 personality ptr @__gxx_personality_v0 {
  %3 = alloca %"class.std::__cxx11::basic_string", align 8
  %4 = tail call noundef nonnull align 8 dereferenceable(32) ptr @_ZNK32pxrInternal_v0_24__pxrReserved__17Sdf_ParserHelpers5Value3GetINSt7__cxx1112basic_stringIcSt11char_traitsIcESaIcEEEEENS0_8_GetImplIT_vE10ResultTypeEv(ptr noundef nonnull align 8 dereferenceable(72) %0)
  %5 = getelementptr inbounds nuw i8, ptr %1, i64 512
  %6 = tail call noundef zeroext i1 @_ZN32pxrInternal_v0_24__pxrReserved__22Sdf_ParserValueContext12SetupFactoryERKNSt7__cxx1112basic_stringIcSt11char_traitsIcESaIcEEE(ptr noundef nonnull align 8 dereferenceable(328) %5, ptr noundef nonnull align 8 dereferenceable(32) %4)
  br i1 %6, label %13, label %7

7:                                                ; preds = %2
  %8 = tail call noundef ptr @_ZNKSt7__cxx1112basic_stringIcSt11char_traitsIcESaIcEE5c_strEv(ptr noundef nonnull align 8 dereferenceable(32) %4) #23
  call void (ptr, ptr, ...) @_ZN32pxrInternal_v0_24__pxrReserved__14TfStringPrintfB5cxx11EPKcz(ptr dead_on_unwind nonnull writable sret(%"class.std::__cxx11::basic_string") align 8 %3, ptr noundef nonnull @.str.26, ptr noundef %8)
  %9 = call noundef ptr @_ZNKSt7__cxx1112basic_stringIcSt11char_traitsIcESaIcEE5c_strEv(ptr noundef nonnull align 8 dereferenceable(32) %3) #23
  invoke void @_ZN32pxrInternal_v0_24__pxrReserved__24Sdf_TextFileFormatParser11_RaiseErrorEPNS_21Sdf_TextParserContextEPKc(ptr noundef %1, ptr noundef %9)
          to label %10 unwind label %11

10:                                               ; preds = %7
  call void @_ZNSt7__cxx1112basic_stringIcSt11char_traitsIcESaIcEED1Ev(ptr noundef nonnull align 8 dereferenceable(32) %3) #23
  br label %13

11:                                               ; preds = %7
  %12 = landingpad { ptr, i32 }
          cleanup
  call void @_ZNSt7__cxx1112basic_stringIcSt11char_traitsIcESaIcEED1Ev(ptr noundef nonnull align 8 dereferenceable(32) %3) #23
  resume { ptr, i32 } %12

13:                                               ; preds = %10, %2
  ret void
}